target datalayout = "e-m:e-p270:32:32-p271:32:32-p272:64:64-i64:64-i128:128-f80:128-n8:16:32:64-S128"
target triple = "x86_64-pc-linux-gnu"

%struct.Map_NodeStruct_t_ = type { ptr, ptr, i32, i32, i32, i32, [3 x i32], [3 x float], float, ptr, ptr, ptr, ptr, [2 x %struct.Map_TimeStruct_t_], [2 x %struct.Map_TimeStruct_t_], [2 x ptr], ptr, ptr, ptr }
%struct.Map_TimeStruct_t_ = type { float, float, float }
%struct.Map_ManStruct_t_ = type { ptr, i32, ptr, i32, ptr, i32, i32, ptr, ptr, ptr, ptr, ptr, ptr, ptr, ptr, i32, i32, i32, i32, float, float, float, float, i32, i32, float, i32, i32, i32, i32, ptr, [6 x [2 x i32]], [10 x [32 x i32]], [32 x i32], [32 x i32], ptr, ptr, ptr, ptr, ptr, ptr, i32, i32, i32, i32, i32, i32, i64, i64, i64, i64, i64, i64, i64, i64, i64, i64, i64 }
%struct.Map_NodeVecStruct_t_ = type { ptr, i32, i32 }

; Function Attrs: nounwind uwtable
define void @Map_ManCleanData(ptr noundef %0) #0 {
  %2 = alloca ptr, align 8
  %3 = alloca i32, align 4
  store ptr %0, ptr %2, align 8, !tbaa !20
  call void @llvm.lifetime.start.p0(i64 4, ptr %3) #4
  store i32 0, ptr %3, align 4, !tbaa !10
  br label %4

4:                                                ; preds = %33, %1
  %5 = load i32, ptr %3, align 4, !tbaa !10
  %6 = load ptr, ptr %2, align 8, !tbaa !20
  %7 = getelementptr inbounds nuw %struct.Map_ManStruct_t_, ptr %6, i32 0, i32 8
  %8 = load ptr, ptr %7, align 8, !tbaa !92
  %9 = getelementptr inbounds nuw %struct.Map_NodeVecStruct_t_, ptr %8, i32 0, i32 1
  %10 = load i32, ptr %9, align 8, !tbaa !35
  %11 = icmp slt i32 %5, %10
  br i1 %11, label %12, label %36

12:                                               ; preds = %4
  %13 = load ptr, ptr %2, align 8, !tbaa !20
  %14 = getelementptr inbounds nuw %struct.Map_ManStruct_t_, ptr %13, i32 0, i32 8
  %15 = load ptr, ptr %14, align 8, !tbaa !92
  %16 = getelementptr inbounds nuw %struct.Map_NodeVecStruct_t_, ptr %15, i32 0, i32 0
  %17 = load ptr, ptr %16, align 8, !tbaa !37
  %18 = load i32, ptr %3, align 4, !tbaa !10
  %19 = sext i32 %18 to i64
  %20 = getelementptr inbounds ptr, ptr %17, i64 %19
  %21 = load ptr, ptr %20, align 8, !tbaa !3
  %22 = getelementptr inbounds nuw %struct.Map_NodeStruct_t_, ptr %21, i32 0, i32 18
  store ptr null, ptr %22, align 8, !tbaa !93
  %23 = load ptr, ptr %2, align 8, !tbaa !20
  %24 = getelementptr inbounds nuw %struct.Map_ManStruct_t_, ptr %23, i32 0, i32 8
  %25 = load ptr, ptr %24, align 8, !tbaa !92
  %26 = getelementptr inbounds nuw %struct.Map_NodeVecStruct_t_, ptr %25, i32 0, i32 0
  %27 = load ptr, ptr %26, align 8, !tbaa !37
  %28 = load i32, ptr %3, align 4, !tbaa !10
  %29 = sext i32 %28 to i64
  %30 = getelementptr inbounds ptr, ptr %27, i64 %29
  %31 = load ptr, ptr %30, align 8, !tbaa !3
  %32 = getelementptr inbounds nuw %struct.Map_NodeStruct_t_, ptr %31, i32 0, i32 17
  store ptr null, ptr %32, align 8, !tbaa !94
  br label %33

33:                                               ; preds = %12
  %34 = load i32, ptr %3, align 4, !tbaa !10
  %35 = add nsw i32 %34, 1
  store i32 %35, ptr %3, align 4, !tbaa !10
  br label %4, !llvm.loop !95

36:                                               ; preds = %4
  call void @llvm.lifetime.end.p0(i64 4, ptr %3) #4
  ret void
}